; ModuleID = '22/331.c'
source_filename = "22/331.c"
target datalayout = "e-m:e-p270:32:32-p271:32:32-p272:64:64-i64:64-f80:128-n8:16:32:64-S128"
target triple = "x86_64-pc-linux-gnu"

@.str = private unnamed_addr constant [3 x i8] c"%d\00", align 1
@.str.1 = private unnamed_addr constant [3 x i8] c"%c\00", align 1
@.str.2 = private unnamed_addr constant [3 x i8] c"No\00", align 1

; Function Attrs: noinline nounwind uwtable
define dso_local void @main() #0 {
  %1 = alloca i32, align 4
  %2 = alloca i32, align 4
  %3 = alloca i32, align 4
  %4 = alloca i32, align 4
  %5 = alloca i32, align 4
  %6 = alloca i8, align 1
  store i32 -1, i32* %2, align 4
  store i32 0, i32* %3, align 4
  %7 = call i32 (i8*, ...) @__isoc99_scanf(i8* getelementptr inbounds ([3 x i8], [3 x i8]* @.str, i64 0, i64 0), i32* %1)
  %8 = call i32 (i8*, ...) @__isoc99_scanf(i8* getelementptr inbounds ([3 x i8], [3 x i8]* @.str.1, i64 0, i64 0), i8* %6)
  %9 = load i8, i8* %6, align 1
  %10 = sext i8 %9 to i32
  %11 = icmp ne i32 %10, 44
  br i1 %11, label %12, label %14

12:                                               ; preds = %0
  %13 = call i32 (i8*, ...) @printf(i8* getelementptr inbounds ([3 x i8], [3 x i8]* @.str.2, i64 0, i64 0))
  store i32 1, i32* %3, align 4
  br label %14

14:                                               ; preds = %12, %0
  store i32 0, i32* %4, align 4
  br label %15

15:                                               ; preds = %40, %14
  %16 = load i8, i8* %6, align 1
  %17 = sext i8 %16 to i32
  %18 = icmp eq i32 %17, 44
  br i1 %18, label %19, label %43

19:                                               ; preds = %15
  %20 = call i32 (i8*, ...) @__isoc99_scanf(i8* getelementptr inbounds ([3 x i8], [3 x i8]* @.str, i64 0, i64 0), i32* %5)
  %21 = load i32, i32* %5, align 4
  %22 = load i32, i32* %1, align 4
  %23 = icmp sgt i32 %21, %22
  br i1 %23, label %24, label %27

24:                                               ; preds = %19
  %25 = load i32, i32* %1, align 4
  store i32 %25, i32* %2, align 4
  %26 = load i32, i32* %5, align 4
  store i32 %26, i32* %1, align 4
  br label %38

27:                                               ; preds = %19
  %28 = load i32, i32* %5, align 4
  %29 = load i32, i32* %1, align 4
  %30 = icmp slt i32 %28, %29
  br i1 %30, label %31, label %37

31:                                               ; preds = %27
  %32 = load i32, i32* %5, align 4
  %33 = load i32, i32* %2, align 4
  %34 = icmp sgt i32 %32, %33
  br i1 %34, label %35, label %37

35:                                               ; preds = %31
  %36 = load i32, i32* %5, align 4
  store i32 %36, i32* %2, align 4
  br label %37

37:                                               ; preds = %35, %31, %27
  br label %38

38:                                               ; preds = %37, %24
  %39 = call i32 (i8*, ...) @__isoc99_scanf(i8* getelementptr inbounds ([3 x i8], [3 x i8]* @.str.1, i64 0, i64 0), i8* %6)
  br label %40

40:                                               ; preds = %38
  %41 = load i32, i32* %4, align 4
  %42 = add nsw i32 %41, 1
  store i32 %42, i32* %4, align 4
  br label %15

43:                                               ; preds = %15
  %44 = load i32, i32* %3, align 4
  %45 = icmp eq i32 %44, 0
  br i1 %45, label %46, label %51

46:                                               ; preds = %43
  %47 = load i32, i32* %2, align 4
  %48 = icmp eq i32 %47, -1
  br i1 %48, label %49, label %51

49:                                               ; preds = %46
  %50 = call i32 (i8*, ...) @printf(i8* getelementptr inbounds ([3 x i8], [3 x i8]* @.str.2, i64 0, i64 0))
  br label %61

51:                                               ; preds = %46, %43
  %52 = load i32, i32* %3, align 4
  %53 = icmp eq i32 %52, 0
  br i1 %53, label %54, label %60

54:                                               ; preds = %51
  %55 = load i32, i32* %2, align 4
  %56 = icmp ne i32 %55, -1
  br i1 %56, label %57, label %60

57:                                               ; preds = %54
  %58 = load i32, i32* %2, align 4
  %59 = call i32 (i8*, ...) @printf(i8* getelementptr inbounds ([3 x i8], [3 x i8]* @.str, i64 0, i64 0), i32 %58)
  br label %60

60:                                               ; preds = %57, %54, %51
  br label %61

61:                                               ; preds = %60, %49
  ret void
}

declare dso_local i32 @__isoc99_scanf(i8*, ...) #1

declare dso_local i32 @printf(i8*, ...) #1


!llvm.module.flags = !{!0}
!llvm.ident = !{!1}

!0 = !{i32 1, !"wchar_size", i32 4}
!1 = !{!"clang version 10.0.0-4ubuntu1 "}
